target datalayout = "e-m:e-p270:32:32-p271:32:32-p272:64:64-i64:64-i128:128-f80:128-n8:16:32:64-S128"
target triple = "x86_64-pc-linux-gnu"

%"class.std::basic_ostream" = type { ptr, %"class.std::basic_ios" }
%"class.std::basic_ios" = type { %"class.std::ios_base", ptr, i8, i8, ptr, ptr, ptr, ptr }
%"class.std::ios_base" = type { ptr, i64, i64, i32, i32, i32, ptr, %"struct.std::ios_base::_Words", [8 x %"struct.std::ios_base::_Words"], i32, ptr, %"class.std::locale" }
%"struct.std::ios_base::_Words" = type { ptr, i64 }
%"class.std::locale" = type { ptr }
%class.DefaultOutputMgr = type { %class.OutputMgr, %"class.std::vector", ptr }
%class.OutputMgr = type { ptr }
%"class.std::vector" = type { %"struct.std::_Vector_base" }
%"struct.std::_Vector_base" = type { %"struct.std::_Vector_base<std::basic_ofstream<char> *, std::allocator<std::basic_ofstream<char> *>>::_Vector_impl" }
%"struct.std::_Vector_base<std::basic_ofstream<char> *, std::allocator<std::basic_ofstream<char> *>>::_Vector_impl" = type { %"struct.std::_Vector_base<std::basic_ofstream<char> *, std::allocator<std::basic_ofstream<char> *>>::_Vector_impl_data" }
%"struct.std::_Vector_base<std::basic_ofstream<char> *, std::allocator<std::basic_ofstream<char> *>>::_Vector_impl_data" = type { ptr, ptr, ptr }

@_ZSt4cout = external global %"class.std::basic_ostream", align 8

; Function Attrs: mustprogress nounwind uwtable
define linkonce_odr dso_local noundef nonnull align 8 dereferenceable(8) ptr @_ZNSt6vectorIPSt14basic_ofstreamIcSt11char_traitsIcEESaIS4_EEixEm(ptr noundef nonnull align 8 dereferenceable(24) %0, i64 noundef %1) #5 comdat align 2 {
  %3 = alloca ptr, align 8
  %4 = alloca i64, align 8
  store ptr %0, ptr %3, align 8, !tbaa !29
  store i64 %1, ptr %4, align 8, !tbaa !41
  %5 = load ptr, ptr %3, align 8
  %6 = getelementptr inbounds nuw %"struct.std::_Vector_base", ptr %5, i32 0, i32 0
  %7 = getelementptr inbounds nuw %"struct.std::_Vector_base<std::basic_ofstream<char> *, std::allocator<std::basic_ofstream<char> *>>::_Vector_impl_data", ptr %6, i32 0, i32 0
  %8 = load ptr, ptr %7, align 8, !tbaa !40
  %9 = load i64, ptr %4, align 8, !tbaa !41
  %10 = getelementptr inbounds nuw ptr, ptr %8, i64 %9
  ret ptr %10
}

; Function Attrs: mustprogress uwtable
define dso_local noundef zeroext i1 @_ZN16DefaultOutputMgr8is_splitEv(ptr noundef nonnull align 8 dereferenceable(40) %0) #6 align 2 {
  %2 = alloca ptr, align 8
  store ptr %0, ptr %2, align 8, !tbaa !13
  %3 = call noundef i32 @_ZN9CGOptions15max_split_filesEv()
  %4 = icmp sgt i32 %3, 0
  ret i1 %4
}

; Function Attrs: mustprogress uwtable
define dso_local noundef nonnull align 8 dereferenceable(8) ptr @_ZN16DefaultOutputMgr12get_main_outEv(ptr noundef nonnull align 8 dereferenceable(40) %0) unnamed_addr #6 align 2 {
  %2 = alloca ptr, align 8
  %3 = alloca ptr, align 8
  store ptr %0, ptr %3, align 8, !tbaa !13
  %4 = load ptr, ptr %3, align 8
  %5 = call noundef zeroext i1 @_ZN16DefaultOutputMgr8is_splitEv(ptr noundef nonnull align 8 dereferenceable(40) %4)
  br i1 %5, label %6, label %10

6:                                                ; preds = %1
  %7 = getelementptr inbounds nuw %class.DefaultOutputMgr, ptr %4, i32 0, i32 1
  %8 = call noundef nonnull align 8 dereferenceable(8) ptr @_ZNSt6vectorIPSt14basic_ofstreamIcSt11char_traitsIcEESaIS4_EEixEm(ptr noundef nonnull align 8 dereferenceable(24) %7, i64 noundef 0) #3
  %9 = load ptr, ptr %8, align 8, !tbaa !15
  store ptr %9, ptr %2, align 8
  br label %18

10:                                               ; preds = %1
  %11 = getelementptr inbounds nuw %class.DefaultOutputMgr, ptr %4, i32 0, i32 2
  %12 = load ptr, ptr %11, align 8, !tbaa !98
  %13 = icmp ne ptr %12, null
  br i1 %13, label %14, label %17

14:                                               ; preds = %10
  %15 = getelementptr inbounds nuw %class.DefaultOutputMgr, ptr %4, i32 0, i32 2
  %16 = load ptr, ptr %15, align 8, !tbaa !98
  store ptr %16, ptr %2, align 8
  br label %18

17:                                               ; preds = %10
  store ptr @_ZSt4cout, ptr %2, align 8
  br label %18

18:                                               ; preds = %17, %14, %6
  %19 = load ptr, ptr %2, align 8
  ret ptr %19
}