; Function Attrs: mustprogress uwtable
define dso_local noundef nonnull align 8 dereferenceable(8) ptr @_ZN16DefaultOutputMgr12get_main_outEv(ptr noundef nonnull readonly align 8 captures(none) dereferenceable(40) %0) unnamed_addr #5 align 2 {
  %2 = tail call noundef i32 @_ZN9CGOptions15max_split_filesEv()
  %3 = icmp sgt i32 %2, 0
  br i1 %3, label %4, label %8

4:                                                ; preds = %1
  %5 = getelementptr inbounds nuw i8, ptr %0, i64 8
  %6 = load ptr, ptr %5, align 8, !tbaa !30
  %7 = load ptr, ptr %6, align 8, !tbaa !29
  br label %11

8:                                                ; preds = %1
  %9 = getelementptr inbounds nuw i8, ptr %0, i64 32
  %10 = load ptr, ptr %9, align 8, !tbaa !17
  %.not = icmp eq ptr %10, null
  %_ZSt4cout. = select i1 %.not, ptr @_ZSt4cout, ptr %10
  br label %11

11:                                               ; preds = %8, %4
  %.0 = phi ptr [ %7, %4 ], [ %_ZSt4cout., %8 ]
  ret ptr %.0
}